target datalayout = "e-m:e-p270:32:32-p271:32:32-p272:64:64-i64:64-i128:128-f80:128-n8:16:32:64-S128"
target triple = "x86_64-pc-linux-gnu"

%struct.H5S_select_class_t = type { i32, ptr, ptr, ptr, ptr, ptr, ptr, ptr, ptr, ptr, ptr, ptr, ptr, ptr, ptr, ptr, ptr, ptr, ptr, ptr, ptr }
%struct.H5S_t = type { %struct.H5S_extent_t, %struct.H5S_select_t }
%struct.H5S_extent_t = type { %struct.H5O_shared_t, i32, i32, i64, i32, ptr, ptr }
%struct.H5O_shared_t = type { i32, ptr, i32, %union.anon }
%union.anon = type { %struct.H5O_mesg_loc_t }
%struct.H5O_mesg_loc_t = type { i32, i64 }
%struct.H5S_select_t = type { ptr, i8, [32 x i64], i64, %union.anon.0 }
%union.anon.0 = type { ptr }

@H5_libinit_g = external global i8, align 1
@H5_libterm_g = external global i8, align 1
@.str.1 = private unnamed_addr constant [103 x i8] c"generated/home/dtcxzyw/WorkSpace/Projects/compilers/llvm-opt-benchmark/bench/hdf5/hdf5/src/H5Sselect.c\00", align 1
@H5E_FUNC_g = external global i64, align 8
@H5E_CANTINIT_g = external global i64, align 8
@.str.2 = private unnamed_addr constant [30 x i8] c"library initialization failed\00", align 1
@H5E_CANTSET_g = external global i64, align 8
@.str.3 = private unnamed_addr constant [22 x i8] c"can't set API context\00", align 1
@H5E_DATASPACE_g = external global i64, align 8
@.str.4 = private unnamed_addr constant [16 x i8] c"not a dataspace\00", align 1
@H5E_ARGS_g = external global i64, align 8
@H5E_BADTYPE_g = external global i64, align 8
@H5E_BADVALUE_g = external global i64, align 8
@__func__.H5Sselect_adjust = private unnamed_addr constant [17 x i8] c"H5Sselect_adjust\00", align 1
@.str.15 = private unnamed_addr constant [20 x i8] c"NULL offset pointer\00", align 1
@H5E_CANTGET_g = external global i64, align 8
@.str.16 = private unnamed_addr constant [27 x i8] c"can't get selection bounds\00", align 1
@.str.17 = private unnamed_addr constant [50 x i8] c"adjustment would move selection below zero offset\00", align 1
@.str.18 = private unnamed_addr constant [23 x i8] c"can't adjust selection\00", align 1

; Function Attrs: nounwind uwtable
define i32 @H5S_select_adjust_s(ptr noundef %0, ptr noundef %1) #0 {
  %3 = alloca ptr, align 8
  %4 = alloca ptr, align 8
  %5 = alloca i32, align 4
  store ptr %0, ptr %3, align 8
  store ptr %1, ptr %4, align 8
  store i32 0, ptr %5, align 4
  %6 = load ptr, ptr %3, align 8
  %7 = getelementptr inbounds %struct.H5S_t, ptr %6, i32 0, i32 1
  %8 = getelementptr inbounds %struct.H5S_select_t, ptr %7, i32 0, i32 0
  %9 = load ptr, ptr %8, align 8
  %10 = getelementptr inbounds %struct.H5S_select_class_t, ptr %9, i32 0, i32 17
  %11 = load ptr, ptr %10, align 8
  %12 = load ptr, ptr %3, align 8
  %13 = load ptr, ptr %4, align 8
  %14 = call i32 %11(ptr noundef %12, ptr noundef %13)
  store i32 %14, ptr %5, align 4
  %15 = load i32, ptr %5, align 4
  ret i32 %15
}

; Function Attrs: nounwind uwtable
define i32 @H5Sselect_adjust(i64 noundef %0, ptr noundef %1) #0 {
  %3 = alloca i64, align 8
  %4 = alloca ptr, align 8
  %5 = alloca ptr, align 8
  %6 = alloca [32 x i64], align 16
  %7 = alloca [32 x i64], align 16
  %8 = alloca i32, align 4
  %9 = alloca i32, align 4
  %10 = alloca i8, align 1
  %11 = alloca i8, align 1
  store i64 %0, ptr %3, align 8
  store ptr %1, ptr %4, align 8
  store i32 0, ptr %9, align 4
  store i8 0, ptr %10, align 1
  store i8 0, ptr %11, align 1
  %12 = load i8, ptr @H5_libinit_g, align 1
  %13 = trunc i8 %12 to i1
  br i1 %13, label %18, label %14

14:                                               ; preds = %2
  %15 = load i8, ptr @H5_libterm_g, align 1
  %16 = trunc i8 %15 to i1
  %17 = xor i1 %16, true
  br label %18

18:                                               ; preds = %14, %2
  %19 = phi i1 [ false, %2 ], [ %17, %14 ]
  %20 = xor i1 %19, true
  %21 = xor i1 %20, true
  %22 = zext i1 %21 to i32
  %23 = sext i32 %22 to i64
  %24 = icmp ne i64 %23, 0
  br i1 %24, label %25, label %49

25:                                               ; preds = %18
  %26 = call i32 @H5_init_library()
  %27 = icmp slt i32 %26, 0
  %28 = xor i1 %27, true
  %29 = xor i1 %28, true
  %30 = zext i1 %29 to i32
  %31 = sext i32 %30 to i64
  %32 = icmp ne i64 %31, 0
  br i1 %32, label %33, label %48

33:                                               ; preds = %25
  br label %34

34:                                               ; preds = %33
  br label %35

35:                                               ; preds = %34
  br label %36

36:                                               ; preds = %35
  %37 = load i64, ptr @H5E_FUNC_g, align 8
  %38 = load i64, ptr @H5E_CANTINIT_g, align 8
  %39 = call i32 (ptr, ptr, i32, i64, i64, ptr, ...) @H5E_printf_stack(ptr noundef @.str.1, ptr noundef @__func__.H5Sselect_adjust, i32 noundef 983, i64 noundef %37, i64 noundef %38, ptr noundef @.str.2)
  br label %40

40:                                               ; preds = %36
  store i8 1, ptr %11, align 1
  %41 = load i8, ptr %11, align 1
  %42 = trunc i8 %41 to i1
  %43 = zext i1 %42 to i8
  store i8 %43, ptr %11, align 1
  br label %44

44:                                               ; preds = %40
  br label %45

45:                                               ; preds = %44
  store i32 -1, ptr %9, align 4
  br label %197

46:                                               ; No predecessors!
  br label %47

47:                                               ; preds = %46
  br label %48

48:                                               ; preds = %47, %25
  br label %49

49:                                               ; preds = %48, %18
  %50 = call i32 @H5CX_push()
  %51 = icmp slt i32 %50, 0
  %52 = xor i1 %51, true
  %53 = xor i1 %52, true
  %54 = zext i1 %53 to i32
  %55 = sext i32 %54 to i64
  %56 = icmp ne i64 %55, 0
  br i1 %56, label %57, label %72

57:                                               ; preds = %49
  br label %58

58:                                               ; preds = %57
  br label %59

59:                                               ; preds = %58
  br label %60

60:                                               ; preds = %59
  %61 = load i64, ptr @H5E_FUNC_g, align 8
  %62 = load i64, ptr @H5E_CANTSET_g, align 8
  %63 = call i32 (ptr, ptr, i32, i64, i64, ptr, ...) @H5E_printf_stack(ptr noundef @.str.1, ptr noundef @__func__.H5Sselect_adjust, i32 noundef 983, i64 noundef %61, i64 noundef %62, ptr noundef @.str.3)
  br label %64

64:                                               ; preds = %60
  store i8 1, ptr %11, align 1
  %65 = load i8, ptr %11, align 1
  %66 = trunc i8 %65 to i1
  %67 = zext i1 %66 to i8
  store i8 %67, ptr %11, align 1
  br label %68

68:                                               ; preds = %64
  br label %69

69:                                               ; preds = %68
  store i32 -1, ptr %9, align 4
  br label %197

70:                                               ; No predecessors!
  br label %71

71:                                               ; preds = %70
  br label %73

72:                                               ; preds = %49
  store i8 1, ptr %10, align 1
  br label %73

73:                                               ; preds = %72, %71
  %74 = call i32 @H5E_clear_stack()
  %75 = load i64, ptr %3, align 8
  %76 = call ptr @H5I_object_verify(i64 noundef %75, i32 noundef 4)
  store ptr %76, ptr %5, align 8
  %77 = icmp eq ptr null, %76
  br i1 %77, label %78, label %93

78:                                               ; preds = %73
  br label %79

79:                                               ; preds = %78
  br label %80

80:                                               ; preds = %79
  br label %81

81:                                               ; preds = %80
  %82 = load i64, ptr @H5E_DATASPACE_g, align 8
  %83 = load i64, ptr @H5E_BADTYPE_g, align 8
  %84 = call i32 (ptr, ptr, i32, i64, i64, ptr, ...) @H5E_printf_stack(ptr noundef @.str.1, ptr noundef @__func__.H5Sselect_adjust, i32 noundef 986, i64 noundef %82, i64 noundef %83, ptr noundef @.str.4)
  br label %85

85:                                               ; preds = %81
  store i8 1, ptr %11, align 1
  %86 = load i8, ptr %11, align 1
  %87 = trunc i8 %86 to i1
  %88 = zext i1 %87 to i8
  store i8 %88, ptr %11, align 1
  br label %89

89:                                               ; preds = %85
  br label %90

90:                                               ; preds = %89
  store i32 -1, ptr %9, align 4
  br label %197

91:                                               ; No predecessors!
  br label %92

92:                                               ; preds = %91
  br label %93

93:                                               ; preds = %92, %73
  %94 = load ptr, ptr %4, align 8
  %95 = icmp eq ptr null, %94
  br i1 %95, label %96, label %111

96:                                               ; preds = %93
  br label %97

97:                                               ; preds = %96
  br label %98

98:                                               ; preds = %97
  br label %99

99:                                               ; preds = %98
  %100 = load i64, ptr @H5E_DATASPACE_g, align 8
  %101 = load i64, ptr @H5E_BADTYPE_g, align 8
  %102 = call i32 (ptr, ptr, i32, i64, i64, ptr, ...) @H5E_printf_stack(ptr noundef @.str.1, ptr noundef @__func__.H5Sselect_adjust, i32 noundef 988, i64 noundef %100, i64 noundef %101, ptr noundef @.str.15)
  br label %103

103:                                              ; preds = %99
  store i8 1, ptr %11, align 1
  %104 = load i8, ptr %11, align 1
  %105 = trunc i8 %104 to i1
  %106 = zext i1 %105 to i8
  store i8 %106, ptr %11, align 1
  br label %107

107:                                              ; preds = %103
  br label %108

108:                                              ; preds = %107
  store i32 -1, ptr %9, align 4
  br label %197

109:                                              ; No predecessors!
  br label %110

110:                                              ; preds = %109
  br label %111

111:                                              ; preds = %110, %93
  %112 = load ptr, ptr %5, align 8
  %113 = getelementptr inbounds %struct.H5S_t, ptr %112, i32 0, i32 1
  %114 = getelementptr inbounds %struct.H5S_select_t, ptr %113, i32 0, i32 0
  %115 = load ptr, ptr %114, align 8
  %116 = getelementptr inbounds %struct.H5S_select_class_t, ptr %115, i32 0, i32 7
  %117 = load ptr, ptr %116, align 8
  %118 = load ptr, ptr %5, align 8
  %119 = getelementptr inbounds [32 x i64], ptr %6, i64 0, i64 0
  %120 = getelementptr inbounds [32 x i64], ptr %7, i64 0, i64 0
  %121 = call i32 %117(ptr noundef %118, ptr noundef %119, ptr noundef %120)
  %122 = icmp slt i32 %121, 0
  br i1 %122, label %123, label %138

123:                                              ; preds = %111
  br label %124

124:                                              ; preds = %123
  br label %125

125:                                              ; preds = %124
  br label %126

126:                                              ; preds = %125
  %127 = load i64, ptr @H5E_DATASPACE_g, align 8
  %128 = load i64, ptr @H5E_CANTGET_g, align 8
  %129 = call i32 (ptr, ptr, i32, i64, i64, ptr, ...) @H5E_printf_stack(ptr noundef @.str.1, ptr noundef @__func__.H5Sselect_adjust, i32 noundef 992, i64 noundef %127, i64 noundef %128, ptr noundef @.str.16)
  br label %130

130:                                              ; preds = %126
  store i8 1, ptr %11, align 1
  %131 = load i8, ptr %11, align 1
  %132 = trunc i8 %131 to i1
  %133 = zext i1 %132 to i8
  store i8 %133, ptr %11, align 1
  br label %134

134:                                              ; preds = %130
  br label %135

135:                                              ; preds = %134
  store i32 -1, ptr %9, align 4
  br label %197

136:                                              ; No predecessors!
  br label %137

137:                                              ; preds = %136
  br label %138

138:                                              ; preds = %137, %111
  store i32 0, ptr %8, align 4
  br label %139

139:                                              ; preds = %173, %138
  %140 = load i32, ptr %8, align 4
  %141 = load ptr, ptr %5, align 8
  %142 = getelementptr inbounds %struct.H5S_t, ptr %141, i32 0, i32 0
  %143 = getelementptr inbounds %struct.H5S_extent_t, ptr %142, i32 0, i32 4
  %144 = load i32, ptr %143, align 8
  %145 = icmp ult i32 %140, %144
  br i1 %145, label %146, label %176

146:                                              ; preds = %139
  %147 = load ptr, ptr %4, align 8
  %148 = load i32, ptr %8, align 4
  %149 = zext i32 %148 to i64
  %150 = getelementptr inbounds i64, ptr %147, i64 %149
  %151 = load i64, ptr %150, align 8
  %152 = load i32, ptr %8, align 4
  %153 = zext i32 %152 to i64
  %154 = getelementptr inbounds [32 x i64], ptr %6, i64 0, i64 %153
  %155 = load i64, ptr %154, align 8
  %156 = icmp sgt i64 %151, %155
  br i1 %156, label %157, label %172

157:                                              ; preds = %146
  br label %158

158:                                              ; preds = %157
  br label %159

159:                                              ; preds = %158
  br label %160

160:                                              ; preds = %159
  %161 = load i64, ptr @H5E_ARGS_g, align 8
  %162 = load i64, ptr @H5E_BADVALUE_g, align 8
  %163 = call i32 (ptr, ptr, i32, i64, i64, ptr, ...) @H5E_printf_stack(ptr noundef @.str.1, ptr noundef @__func__.H5Sselect_adjust, i32 noundef 995, i64 noundef %161, i64 noundef %162, ptr noundef @.str.17)
  br label %164

164:                                              ; preds = %160
  store i8 1, ptr %11, align 1
  %165 = load i8, ptr %11, align 1
  %166 = trunc i8 %165 to i1
  %167 = zext i1 %166 to i8
  store i8 %167, ptr %11, align 1
  br label %168

168:                                              ; preds = %164
  br label %169

169:                                              ; preds = %168
  store i32 -1, ptr %9, align 4
  br label %197

170:                                              ; No predecessors!
  br label %171

171:                                              ; preds = %170
  br label %172

172:                                              ; preds = %171, %146
  br label %173

173:                                              ; preds = %172
  %174 = load i32, ptr %8, align 4
  %175 = add i32 %174, 1
  store i32 %175, ptr %8, align 4
  br label %139

176:                                              ; preds = %139
  %177 = load ptr, ptr %5, align 8
  %178 = load ptr, ptr %4, align 8
  %179 = call i32 @H5S_select_adjust_s(ptr noundef %177, ptr noundef %178)
  %180 = icmp slt i32 %179, 0
  br i1 %180, label %181, label %196

181:                                              ; preds = %176
  br label %182

182:                                              ; preds = %181
  br label %183

183:                                              ; preds = %182
  br label %184

184:                                              ; preds = %183
  %185 = load i64, ptr @H5E_DATASPACE_g, align 8
  %186 = load i64, ptr @H5E_CANTSET_g, align 8
  %187 = call i32 (ptr, ptr, i32, i64, i64, ptr, ...) @H5E_printf_stack(ptr noundef @.str.1, ptr noundef @__func__.H5Sselect_adjust, i32 noundef 998, i64 noundef %185, i64 noundef %186, ptr noundef @.str.18)
  br label %188

188:                                              ; preds = %184
  store i8 1, ptr %11, align 1
  %189 = load i8, ptr %11, align 1
  %190 = trunc i8 %189 to i1
  %191 = zext i1 %190 to i8
  store i8 %191, ptr %11, align 1
  br label %192

192:                                              ; preds = %188
  br label %193

193:                                              ; preds = %192
  store i32 -1, ptr %9, align 4
  br label %197

194:                                              ; No predecessors!
  br label %195

195:                                              ; preds = %194
  br label %196

196:                                              ; preds = %195, %176
  br label %197

197:                                              ; preds = %196, %193, %169, %135, %108, %90, %69, %45
  %198 = load i8, ptr %10, align 1
  %199 = trunc i8 %198 to i1
  %200 = xor i1 %199, true
  %201 = xor i1 %200, true
  %202 = zext i1 %201 to i32
  %203 = sext i32 %202 to i64
  %204 = icmp ne i64 %203, 0
  br i1 %204, label %205, label %207

205:                                              ; preds = %197
  %206 = call i32 @H5CX_pop(i1 noundef zeroext true)
  store i8 0, ptr %10, align 1
  br label %207

207:                                              ; preds = %205, %197
  %208 = load i8, ptr %11, align 1
  %209 = trunc i8 %208 to i1
  %210 = xor i1 %209, true
  %211 = xor i1 %210, true
  %212 = zext i1 %211 to i32
  %213 = sext i32 %212 to i64
  %214 = icmp ne i64 %213, 0
  br i1 %214, label %215, label %217

215:                                              ; preds = %207
  %216 = call i32 @H5E_dump_api_stack()
  br label %217

217:                                              ; preds = %215, %207
  %218 = load i32, ptr %9, align 4
  ret i32 %218
}