; Function Attrs: nounwind uwtable
define range(i32 -1, 1) i32 @H5Sselect_adjust(i64 noundef %0, ptr noundef %1) local_unnamed_addr #3 {
  %3 = alloca [32 x i64], align 16
  %4 = alloca [32 x i64], align 16
  %5 = load i8, ptr @H5_libinit_g, align 1
  %6 = trunc i8 %5 to i1
  %7 = load i8, ptr @H5_libterm_g, align 1
  %8 = trunc i8 %7 to i1
  %9 = select i1 %6, i1 true, i1 %8
  br i1 %9, label %17, label %10

10:                                               ; preds = %2
  %11 = tail call i32 @H5_init_library() #7
  %12 = icmp slt i32 %11, 0
  br i1 %12, label %13, label %17

13:                                               ; preds = %10
  %14 = load i64, ptr @H5E_FUNC_g, align 8
  %15 = load i64, ptr @H5E_CANTINIT_g, align 8
  %16 = tail call i32 (ptr, ptr, i32, i64, i64, ptr, ...) @H5E_printf_stack(ptr noundef nonnull @.str.1, ptr noundef nonnull @__func__.H5Sselect_adjust, i32 noundef 983, i64 noundef %14, i64 noundef %15, ptr noundef nonnull @.str.2) #7
  br label %.thread34

17:                                               ; preds = %10, %2
  %18 = tail call i32 @H5CX_push() #7
  %19 = icmp slt i32 %18, 0
  br i1 %19, label %20, label %24

20:                                               ; preds = %17
  %21 = load i64, ptr @H5E_FUNC_g, align 8
  %22 = load i64, ptr @H5E_CANTSET_g, align 8
  %23 = tail call i32 (ptr, ptr, i32, i64, i64, ptr, ...) @H5E_printf_stack(ptr noundef nonnull @.str.1, ptr noundef nonnull @__func__.H5Sselect_adjust, i32 noundef 983, i64 noundef %21, i64 noundef %22, ptr noundef nonnull @.str.3) #7
  br label %.thread34

24:                                               ; preds = %17
  %25 = tail call i32 @H5E_clear_stack() #7
  %26 = tail call ptr @H5I_object_verify(i64 noundef %0, i32 noundef 4) #7
  %27 = icmp eq ptr %26, null
  br i1 %27, label %28, label %32

28:                                               ; preds = %24
  %29 = load i64, ptr @H5E_DATASPACE_g, align 8
  %30 = load i64, ptr @H5E_BADTYPE_g, align 8
  %31 = tail call i32 (ptr, ptr, i32, i64, i64, ptr, ...) @H5E_printf_stack(ptr noundef nonnull @.str.1, ptr noundef nonnull @__func__.H5Sselect_adjust, i32 noundef 986, i64 noundef %29, i64 noundef %30, ptr noundef nonnull @.str.4) #7
  br label %.thread40

32:                                               ; preds = %24
  %33 = icmp eq ptr %1, null
  br i1 %33, label %34, label %38

34:                                               ; preds = %32
  %35 = load i64, ptr @H5E_DATASPACE_g, align 8
  %36 = load i64, ptr @H5E_BADTYPE_g, align 8
  %37 = tail call i32 (ptr, ptr, i32, i64, i64, ptr, ...) @H5E_printf_stack(ptr noundef nonnull @.str.1, ptr noundef nonnull @__func__.H5Sselect_adjust, i32 noundef 988, i64 noundef %35, i64 noundef %36, ptr noundef nonnull @.str.15) #7
  br label %.thread40

38:                                               ; preds = %32
  %39 = getelementptr inbounds i8, ptr %26, i64 80
  %40 = load ptr, ptr %39, align 8
  %41 = getelementptr inbounds i8, ptr %40, i64 56
  %42 = load ptr, ptr %41, align 8
  %43 = call i32 %42(ptr noundef nonnull %26, ptr noundef nonnull %3, ptr noundef nonnull %4) #7
  %44 = icmp slt i32 %43, 0
  br i1 %44, label %47, label %.preheader

.preheader:                                       ; preds = %38
  %45 = getelementptr inbounds i8, ptr %26, i64 56
  %46 = load i32, ptr %45, align 8
  %.not = icmp eq i32 %46, 0
  br i1 %.not, label %._crit_edge, label %.lr.ph.preheader

.lr.ph.preheader:                                 ; preds = %.preheader
  %wide.trip.count = zext i32 %46 to i64
  br label %.lr.ph

47:                                               ; preds = %38
  %48 = load i64, ptr @H5E_DATASPACE_g, align 8
  %49 = load i64, ptr @H5E_CANTGET_g, align 8
  %50 = call i32 (ptr, ptr, i32, i64, i64, ptr, ...) @H5E_printf_stack(ptr noundef nonnull @.str.1, ptr noundef nonnull @__func__.H5Sselect_adjust, i32 noundef 992, i64 noundef %48, i64 noundef %49, ptr noundef nonnull @.str.16) #7
  br label %.thread40

51:                                               ; preds = %.lr.ph
  %indvars.iv.next = add nuw nsw i64 %indvars.iv, 1
  %exitcond.not = icmp eq i64 %indvars.iv.next, %wide.trip.count
  br i1 %exitcond.not, label %._crit_edge, label %.lr.ph

.lr.ph:                                           ; preds = %.lr.ph.preheader, %51
  %indvars.iv = phi i64 [ 0, %.lr.ph.preheader ], [ %indvars.iv.next, %51 ]
  %52 = getelementptr inbounds i64, ptr %1, i64 %indvars.iv
  %53 = load i64, ptr %52, align 8
  %54 = getelementptr inbounds [32 x i64], ptr %3, i64 0, i64 %indvars.iv
  %55 = load i64, ptr %54, align 8
  %56 = icmp sgt i64 %53, %55
  br i1 %56, label %57, label %51

57:                                               ; preds = %.lr.ph
  %58 = load i64, ptr @H5E_ARGS_g, align 8
  %59 = load i64, ptr @H5E_BADVALUE_g, align 8
  %60 = call i32 (ptr, ptr, i32, i64, i64, ptr, ...) @H5E_printf_stack(ptr noundef nonnull @.str.1, ptr noundef nonnull @__func__.H5Sselect_adjust, i32 noundef 995, i64 noundef %58, i64 noundef %59, ptr noundef nonnull @.str.17) #7
  br label %.thread40

._crit_edge:                                      ; preds = %51, %.preheader
  %61 = load ptr, ptr %39, align 8
  %62 = getelementptr inbounds i8, ptr %61, i64 136
  %63 = load ptr, ptr %62, align 8
  %64 = call i32 %63(ptr noundef nonnull %26, ptr noundef nonnull %1) #7
  %65 = icmp slt i32 %64, 0
  br i1 %65, label %66, label %71

66:                                               ; preds = %._crit_edge
  %67 = load i64, ptr @H5E_DATASPACE_g, align 8
  %68 = load i64, ptr @H5E_CANTSET_g, align 8
  %69 = call i32 (ptr, ptr, i32, i64, i64, ptr, ...) @H5E_printf_stack(ptr noundef nonnull @.str.1, ptr noundef nonnull @__func__.H5Sselect_adjust, i32 noundef 998, i64 noundef %67, i64 noundef %68, ptr noundef nonnull @.str.18) #7
  br label %.thread40

.thread40:                                        ; preds = %66, %57, %47, %34, %28
  %70 = call i32 @H5CX_pop(i1 noundef zeroext true) #7
  br label %.thread34

71:                                               ; preds = %._crit_edge
  %72 = call i32 @H5CX_pop(i1 noundef zeroext true) #7
  br label %74

.thread34:                                        ; preds = %20, %13, %.thread40
  %73 = call i32 @H5E_dump_api_stack() #7
  br label %74

74:                                               ; preds = %71, %.thread34
  %.0222937 = phi i32 [ -1, %.thread34 ], [ 0, %71 ]
  ret i32 %.0222937
}